; Function Attrs: mustprogress uwtable
define noundef nonnull align 8 dereferenceable(32) ptr @_ZNK11llama_vocab14token_to_pieceB5cxx11Ei(ptr noundef nonnull readonly align 8 captures(none) dereferenceable(8) %0, i32 noundef %1) local_unnamed_addr #0 align 2 {
  %3 = load ptr, ptr %0, align 8, !tbaa !174
  %4 = getelementptr inbounds nuw i8, ptr %3, i64 192
  %5 = sext i32 %1 to i64
  %6 = getelementptr inbounds nuw i8, ptr %3, i64 200
  %7 = load ptr, ptr %6, align 8, !tbaa !153
  %8 = load ptr, ptr %4, align 8, !tbaa !149
  %9 = ptrtoint ptr %7 to i64
  %10 = ptrtoint ptr %8 to i64
  %11 = sub i64 %9, %10
  %12 = ashr exact i64 %11, 5
  %.not.i.i.i = icmp ugt i64 %12, %5
  br i1 %.not.i.i.i, label %_ZNK11llama_vocab4impl14token_to_pieceB5cxx11Ei.exit, label %13

13:                                               ; preds = %2
  tail call void (ptr, ...) @_ZSt24__throw_out_of_range_fmtPKcz(ptr noundef nonnull @.str.179, i64 noundef %5, i64 noundef %12) #31
  unreachable

_ZNK11llama_vocab4impl14token_to_pieceB5cxx11Ei.exit: ; preds = %2
  %14 = getelementptr inbounds nuw %"class.std::__cxx11::basic_string", ptr %8, i64 %5
  ret ptr %14
}